; Function Attrs: mustprogress uwtable
define hidden noundef ptr @_ZN7datalog21check_relation_plugin8mk_emptyERKNS_18relation_signatureE(ptr noundef nonnull align 8 dereferenceable(56) %0, ptr noundef nonnull align 8 dereferenceable(8) %1) unnamed_addr #3 align 2 personality ptr @__gxx_personality_v0 {
  %3 = alloca %class.obj_ref, align 8
  %4 = getelementptr inbounds nuw i8, ptr %0, i64 48
  %5 = load ptr, ptr %4, align 8, !tbaa !384
  %6 = load ptr, ptr %5, align 8, !tbaa !3
  %7 = getelementptr inbounds nuw i8, ptr %6, i64 40
  %8 = load ptr, ptr %7, align 8
  %9 = tail call noundef ptr %8(ptr noundef nonnull align 8 dereferenceable(32) %5, ptr noundef nonnull align 8 dereferenceable(8) %1)
  %10 = tail call noalias noundef ptr @_ZN6memory8allocateEm(i64 noundef 64)
  tail call void @_ZN7datalog14check_relationC2ERNS_21check_relation_pluginERKNS_18relation_signatureEPNS_13relation_baseE(ptr noundef nonnull align 8 dereferenceable(64) %10, ptr noundef nonnull align 8 dereferenceable(56) %0, ptr noundef nonnull align 8 dereferenceable(8) %1, ptr noundef %9)
  %11 = getelementptr inbounds nuw i8, ptr %10, i64 48
  %12 = load ptr, ptr %11, align 8, !tbaa !35
  %13 = getelementptr inbounds nuw i8, ptr %0, i64 40
  %14 = load ptr, ptr %13, align 8, !tbaa !43
  %15 = getelementptr inbounds nuw i8, ptr %14, i64 864
  %16 = load ptr, ptr %15, align 8, !tbaa !129
  %.not = icmp eq ptr %12, %16
  br i1 %.not, label %39, label %17

17:                                               ; preds = %2
  call void @llvm.lifetime.start.p0(i64 16, ptr nonnull %3) #24
  %18 = getelementptr inbounds nuw i8, ptr %10, i64 8
  %19 = load ptr, ptr %18, align 8, !tbaa !39, !noalias !385
  call void @_ZNK7datalog21check_relation_plugin6groundERKNS_13relation_baseEP4expr(ptr dead_on_unwind nonnull writable sret(%class.obj_ref) align 8 %3, ptr noundef nonnull align 8 dereferenceable(56) %19, ptr noundef nonnull readonly align 8 dereferenceable(64) %10, ptr noundef %12)
  %20 = load ptr, ptr %3, align 8, !tbaa !35
  %21 = load ptr, ptr %13, align 8, !tbaa !43
  %22 = getelementptr inbounds nuw i8, ptr %21, i64 864
  %23 = load ptr, ptr %22, align 8, !tbaa !129
  invoke void @_ZN7datalog21check_relation_plugin11check_equivEPKcP4exprS4_(ptr noundef nonnull align 8 dereferenceable(56) %0, ptr noundef nonnull @.str.8, ptr noundef %20, ptr noundef %23)
          to label %24 unwind label %37

24:                                               ; preds = %17
  %25 = load ptr, ptr %3, align 8, !tbaa !35
  %.not.i.i = icmp eq ptr %25, null
  br i1 %.not.i.i, label %_ZN7obj_refI4expr11ast_managerED2Ev.exit, label %26

26:                                               ; preds = %24
  %27 = getelementptr inbounds nuw i8, ptr %3, i64 8
  %28 = load ptr, ptr %27, align 8, !tbaa !36
  %29 = getelementptr inbounds nuw i8, ptr %25, i64 8
  %30 = load i32, ptr %29, align 4, !tbaa !37
  %31 = add i32 %30, -1
  store i32 %31, ptr %29, align 4, !tbaa !37
  %32 = icmp eq i32 %31, 0
  br i1 %32, label %33, label %_ZN7obj_refI4expr11ast_managerED2Ev.exit

33:                                               ; preds = %26
  invoke void @_ZN11ast_manager11delete_nodeEP3ast(ptr noundef nonnull align 8 dereferenceable(976) %28, ptr noundef nonnull %25)
          to label %_ZN7obj_refI4expr11ast_managerED2Ev.exit unwind label %34

34:                                               ; preds = %33
  %35 = landingpad { ptr, i32 }
          catch ptr null
  %36 = extractvalue { ptr, i32 } %35, 0
  call void @__clang_call_terminate(ptr %36) #25
  unreachable

_ZN7obj_refI4expr11ast_managerED2Ev.exit:         ; preds = %24, %26, %33
  call void @llvm.lifetime.end.p0(i64 16, ptr nonnull %3) #24
  br label %39

37:                                               ; preds = %17
  %38 = landingpad { ptr, i32 }
          cleanup
  call void @_ZN7obj_refI4expr11ast_managerED2Ev(ptr noundef nonnull align 8 dereferenceable(16) %3) #24
  call void @llvm.lifetime.end.p0(i64 16, ptr nonnull %3) #24
  resume { ptr, i32 } %38

39:                                               ; preds = %_ZN7obj_refI4expr11ast_managerED2Ev.exit, %2
  ret ptr %10
}